target datalayout = "e-m:e-p270:32:32-p271:32:32-p272:64:64-i64:64-i128:128-f80:128-n8:16:32:64-S128"
target triple = "x86_64-pc-linux-gnu"

@.str = private unnamed_addr constant [5 x i8] c"%s%s\00", align 1
@.str.1 = private unnamed_addr constant [2 x i8] c"/\00", align 1
@.str.2 = private unnamed_addr constant [1 x i8] zeroinitializer, align 1

; Function Attrs: nounwind uwtable
define dso_local void @join_path_components(ptr noundef %0, ptr noundef %1, ptr noundef %2) #0 {
  %4 = alloca ptr, align 8
  %5 = alloca ptr, align 8
  %6 = alloca ptr, align 8
  store ptr %0, ptr %4, align 8
  store ptr %1, ptr %5, align 8
  store ptr %2, ptr %6, align 8
  %7 = load ptr, ptr %4, align 8
  %8 = load ptr, ptr %5, align 8
  %9 = icmp ne ptr %7, %8
  br i1 %9, label %10, label %14

10:                                               ; preds = %3
  %11 = load ptr, ptr %4, align 8
  %12 = load ptr, ptr %5, align 8
  %13 = call i64 @strlcpy(ptr noundef %11, ptr noundef %12, i64 noundef 1024)
  br label %14

14:                                               ; preds = %10, %3
  %15 = load ptr, ptr %6, align 8
  %16 = load i8, ptr %15, align 1
  %17 = icmp ne i8 %16, 0
  br i1 %17, label %18, label %33

18:                                               ; preds = %14
  %19 = load ptr, ptr %4, align 8
  %20 = load ptr, ptr %4, align 8
  %21 = call i64 @strlen(ptr noundef %20) #11
  %22 = getelementptr inbounds nuw i8, ptr %19, i64 %21
  %23 = load ptr, ptr %4, align 8
  %24 = call i64 @strlen(ptr noundef %23) #11
  %25 = sub i64 1024, %24
  %26 = load ptr, ptr %5, align 8
  %27 = load i8, ptr %26, align 1
  %28 = sext i8 %27 to i32
  %29 = icmp ne i32 %28, 0
  %30 = select i1 %29, ptr @.str.1, ptr @.str.2
  %31 = load ptr, ptr %6, align 8
  %32 = call i32 (ptr, i64, ptr, ...) @pg_snprintf(ptr noundef %22, i64 noundef %25, ptr noundef @.str, ptr noundef %30, ptr noundef %31)
  br label %33

33:                                               ; preds = %18, %14
  ret void
}