; Function Attrs: nounwind uwtable
define dso_local void @join_path_components(ptr noundef %0, ptr noundef %1, ptr noundef %2) local_unnamed_addr #3 {
  %.not = icmp eq ptr %0, %1
  br i1 %.not, label %6, label %4

4:                                                ; preds = %3
  %5 = tail call i64 @strlcpy(ptr noundef nonnull dereferenceable(1) %0, ptr noundef nonnull dereferenceable(1) %1, i64 noundef 1024) #21
  br label %6

6:                                                ; preds = %4, %3
  %7 = load i8, ptr %2, align 1
  %.not11 = icmp eq i8 %7, 0
  br i1 %.not11, label %15, label %8

8:                                                ; preds = %6
  %9 = tail call i64 @strlen(ptr noundef nonnull dereferenceable(1) %0) #22
  %10 = getelementptr inbounds nuw i8, ptr %0, i64 %9
  %11 = sub i64 1024, %9
  %12 = load i8, ptr %1, align 1
  %.not12 = icmp eq i8 %12, 0
  %13 = select i1 %.not12, ptr @.str.2, ptr @.str.1
  %14 = tail call i32 (ptr, i64, ptr, ...) @pg_snprintf(ptr noundef nonnull %10, i64 noundef %11, ptr noundef nonnull @.str, ptr noundef nonnull %13, ptr noundef nonnull %2) #21
  br label %15

15:                                               ; preds = %8, %6
  ret void
}